target datalayout = "e-m:e-p270:32:32-p271:32:32-p272:64:64-i64:64-i128:128-f80:128-n8:16:32:64-S128"
target triple = "x86_64-pc-linux-gnu"

%struct._zend_fcall_info = type { i64, %struct._zval_struct, ptr, ptr, ptr, i32, ptr }
%struct._zval_struct = type { %union._zend_value, %union.anon, %union.anon.2 }
%union._zend_value = type { i64 }
%union.anon = type { i32 }
%union.anon.2 = type { i32 }
%struct._zend_fcall_info_cache = type { ptr, ptr, ptr, ptr, ptr }
%struct._zend_executor_globals = type { %struct._zval_struct, %struct._zval_struct, [32 x ptr], ptr, ptr, %struct._zend_array, %struct._zend_array, ptr, i32, i32, ptr, ptr, ptr, ptr, ptr, ptr, i64, ptr, ptr, i32, i32, i64, i32, i32, i32, i8, i8, %struct.zend_atomic_bool_s, %struct.zend_atomic_bool_s, ptr, i64, ptr, ptr, %struct._zend_array, %struct._zend_array, i32, i8, %struct._zval_struct, %struct._zval_struct, %struct._zend_stack, %struct._zend_stack, %struct._zend_stack, ptr, i32, i32, i64, ptr, ptr, ptr, %struct._zend_objects_store, ptr, ptr, ptr, [3 x %struct._zend_op], ptr, i8, i8, i64, i32, i32, ptr, [16 x %struct._HashTableIterator], ptr, %union._zend_function, %struct._zend_op, %struct._zend_array, i64, %struct.zend_get_gc_buffer, ptr, ptr, ptr, i64, i8, i32, ptr, ptr, i64, %struct._zend_call_stack, i64, i64, [6 x ptr] }
%struct.zend_atomic_bool_s = type { i8 }
%struct._zend_stack = type { i32, i32, i32, ptr }
%struct._zend_objects_store = type { ptr, i32, i32, i32 }
%struct._HashTableIterator = type { ptr, i32, i32 }
%union._zend_function = type { %struct._zend_op_array }
%struct._zend_op_array = type { i8, [3 x i8], i32, ptr, ptr, ptr, i32, i32, ptr, ptr, ptr, ptr, i32, i32, i32, i32, ptr, ptr, ptr, ptr, ptr, i32, i32, ptr, ptr, ptr, i32, i32, i32, i32, ptr, ptr, [6 x ptr] }
%struct._zend_op = type { ptr, %union._znode_op, %union._znode_op, %union._znode_op, i32, i32, i8, i8, i8, i8 }
%union._znode_op = type { i32 }
%struct._zend_array = type { %struct._zend_refcounted_h, %union.anon.4, i32, %union.anon.6, i32, i32, i32, i32, i64, ptr }
%struct._zend_refcounted_h = type { i32, %union.anon.3 }
%union.anon.3 = type { i32 }
%union.anon.4 = type { i32 }
%union.anon.6 = type { ptr }
%struct.zend_get_gc_buffer = type { ptr, ptr, ptr }
%struct._zend_call_stack = type { ptr, i64 }
%struct.anon.7 = type { i8, [3 x i8], i32, ptr, ptr, ptr, i32, i32, ptr, ptr, ptr, ptr, i32 }
%struct._zend_class_entry = type { i8, ptr, %union.anon.8, i32, i32, i32, i32, ptr, ptr, ptr, %struct._zend_array, %struct._zend_array, %struct._zend_array, ptr, ptr, ptr, ptr, ptr, ptr, ptr, ptr, ptr, ptr, ptr, ptr, ptr, ptr, ptr, ptr, ptr, ptr, ptr, %union.anon.9, ptr, ptr, ptr, ptr, i32, i32, %union.anon.10, ptr, ptr, ptr, ptr, i32, ptr, ptr, %union.anon.11 }
%union.anon.8 = type { ptr }
%union.anon.9 = type { ptr }
%union.anon.10 = type { ptr }
%union.anon.11 = type { %struct.anon.12 }
%struct.anon.12 = type { ptr, i32, i32 }
%struct._zend_string = type { %struct._zend_refcounted_h, i64, i64, [1 x i8] }

@executor_globals = external global %struct._zend_executor_globals, align 8
@.str = private unnamed_addr constant [1 x i8] zeroinitializer, align 1
@.str.1 = private unnamed_addr constant [3 x i8] c"::\00", align 1
@.str.8 = private unnamed_addr constant [31 x i8] c"Couldn't execute method %s%s%s\00", align 1

; Function Attrs: nounwind uwtable
define void @zend_call_known_function(ptr noundef %0, ptr noundef %1, ptr noundef %2, ptr noundef %3, i32 noundef %4, ptr noundef %5, ptr noundef %6) #0 {
  %8 = alloca ptr, align 8
  %9 = alloca ptr, align 8
  %10 = alloca ptr, align 8
  %11 = alloca ptr, align 8
  %12 = alloca i32, align 4
  %13 = alloca ptr, align 8
  %14 = alloca ptr, align 8
  %15 = alloca %struct._zval_struct, align 8
  %16 = alloca %struct._zend_fcall_info, align 8
  %17 = alloca %struct._zend_fcall_info_cache, align 8
  %18 = alloca i32, align 4
  store ptr %0, ptr %8, align 8
  store ptr %1, ptr %9, align 8
  store ptr %2, ptr %10, align 8
  store ptr %3, ptr %11, align 8
  store i32 %4, ptr %12, align 4
  store ptr %5, ptr %13, align 8
  store ptr %6, ptr %14, align 8
  %19 = load ptr, ptr %8, align 8
  %20 = icmp ne ptr %19, null
  br i1 %20, label %21, label %22

21:                                               ; preds = %7
  br label %22

22:                                               ; preds = %21, %7
  %23 = phi i1 [ false, %7 ], [ true, %21 ]
  call void @llvm.assume(i1 %23)
  %24 = getelementptr inbounds %struct._zend_fcall_info, ptr %16, i32 0, i32 0
  store i64 64, ptr %24, align 8
  %25 = load ptr, ptr %9, align 8
  %26 = getelementptr inbounds %struct._zend_fcall_info, ptr %16, i32 0, i32 4
  store ptr %25, ptr %26, align 8
  %27 = load ptr, ptr %11, align 8
  %28 = icmp ne ptr %27, null
  br i1 %28, label %29, label %31

29:                                               ; preds = %22
  %30 = load ptr, ptr %11, align 8
  br label %32

31:                                               ; preds = %22
  br label %32

32:                                               ; preds = %31, %29
  %33 = phi ptr [ %30, %29 ], [ %15, %31 ]
  %34 = getelementptr inbounds %struct._zend_fcall_info, ptr %16, i32 0, i32 2
  store ptr %33, ptr %34, align 8
  %35 = load i32, ptr %12, align 4
  %36 = getelementptr inbounds %struct._zend_fcall_info, ptr %16, i32 0, i32 5
  store i32 %35, ptr %36, align 8
  %37 = load ptr, ptr %13, align 8
  %38 = getelementptr inbounds %struct._zend_fcall_info, ptr %16, i32 0, i32 3
  store ptr %37, ptr %38, align 8
  %39 = load ptr, ptr %14, align 8
  %40 = getelementptr inbounds %struct._zend_fcall_info, ptr %16, i32 0, i32 6
  store ptr %39, ptr %40, align 8
  br label %41

41:                                               ; preds = %32
  %42 = getelementptr inbounds %struct._zend_fcall_info, ptr %16, i32 0, i32 1
  %43 = getelementptr inbounds %struct._zval_struct, ptr %42, i32 0, i32 1
  store i32 0, ptr %43, align 8
  br label %44

44:                                               ; preds = %41
  %45 = load ptr, ptr %8, align 8
  %46 = getelementptr inbounds %struct._zend_fcall_info_cache, ptr %17, i32 0, i32 0
  store ptr %45, ptr %46, align 8
  %47 = load ptr, ptr %9, align 8
  %48 = getelementptr inbounds %struct._zend_fcall_info_cache, ptr %17, i32 0, i32 3
  store ptr %47, ptr %48, align 8
  %49 = load ptr, ptr %10, align 8
  %50 = getelementptr inbounds %struct._zend_fcall_info_cache, ptr %17, i32 0, i32 2
  store ptr %49, ptr %50, align 8
  %51 = call i32 @zend_call_function(ptr noundef %16, ptr noundef %17)
  store i32 %51, ptr %18, align 4
  %52 = load i32, ptr %18, align 4
  %53 = icmp eq i32 %52, -1
  %54 = xor i1 %53, true
  %55 = xor i1 %54, true
  %56 = zext i1 %55 to i32
  %57 = sext i32 %56 to i64
  %58 = icmp ne i64 %57, 0
  br i1 %58, label %59, label %89

59:                                               ; preds = %44
  %60 = load ptr, ptr getelementptr inbounds (%struct._zend_executor_globals, ptr @executor_globals, i32 0, i32 50), align 8
  %61 = icmp ne ptr %60, null
  br i1 %61, label %88, label %62

62:                                               ; preds = %59
  %63 = load ptr, ptr %8, align 8
  %64 = getelementptr inbounds %struct.anon.7, ptr %63, i32 0, i32 4
  %65 = load ptr, ptr %64, align 8
  %66 = icmp ne ptr %65, null
  br i1 %66, label %67, label %75

67:                                               ; preds = %62
  %68 = load ptr, ptr %8, align 8
  %69 = getelementptr inbounds %struct.anon.7, ptr %68, i32 0, i32 4
  %70 = load ptr, ptr %69, align 8
  %71 = getelementptr inbounds %struct._zend_class_entry, ptr %70, i32 0, i32 1
  %72 = load ptr, ptr %71, align 8
  %73 = getelementptr inbounds %struct._zend_string, ptr %72, i32 0, i32 3
  %74 = getelementptr inbounds [1 x i8], ptr %73, i64 0, i64 0
  br label %76

75:                                               ; preds = %62
  br label %76

76:                                               ; preds = %75, %67
  %77 = phi ptr [ %74, %67 ], [ @.str, %75 ]
  %78 = load ptr, ptr %8, align 8
  %79 = getelementptr inbounds %struct.anon.7, ptr %78, i32 0, i32 4
  %80 = load ptr, ptr %79, align 8
  %81 = icmp ne ptr %80, null
  %82 = select i1 %81, ptr @.str.1, ptr @.str
  %83 = load ptr, ptr %8, align 8
  %84 = getelementptr inbounds %struct.anon.7, ptr %83, i32 0, i32 3
  %85 = load ptr, ptr %84, align 8
  %86 = getelementptr inbounds %struct._zend_string, ptr %85, i32 0, i32 3
  %87 = getelementptr inbounds [1 x i8], ptr %86, i64 0, i64 0
  call void (i32, ptr, ...) @zend_error_noreturn(i32 noundef 16, ptr noundef @.str.8, ptr noundef %77, ptr noundef %82, ptr noundef %87) #16
  unreachable

88:                                               ; preds = %59
  br label %89

89:                                               ; preds = %88, %44
  %90 = load ptr, ptr %11, align 8
  %91 = icmp ne ptr %90, null
  br i1 %91, label %93, label %92

92:                                               ; preds = %89
  call void @zval_ptr_dtor(ptr noundef %15)
  br label %93

93:                                               ; preds = %92, %89
  ret void
}