; Function Attrs: nounwind uwtable
define void @zend_call_known_function(ptr noundef %0, ptr noundef %1, ptr noundef %2, ptr noundef %3, i32 noundef %4, ptr noundef %5, ptr noundef %6) local_unnamed_addr #0 {
  %8 = alloca %struct._zval_struct, align 8
  %9 = alloca %struct._zend_fcall_info, align 8
  %10 = alloca %struct._zend_fcall_info_cache, align 8
  %11 = icmp ne ptr %0, null
  tail call void @llvm.assume(i1 %11)
  store i64 64, ptr %9, align 8
  %12 = getelementptr inbounds i8, ptr %9, i64 40
  store ptr %1, ptr %12, align 8
  %.not = icmp eq ptr %3, null
  %13 = select i1 %.not, ptr %8, ptr %3
  %14 = getelementptr inbounds i8, ptr %9, i64 24
  store ptr %13, ptr %14, align 8
  %15 = getelementptr inbounds i8, ptr %9, i64 48
  store i32 %4, ptr %15, align 8
  %16 = getelementptr inbounds i8, ptr %9, i64 32
  store ptr %5, ptr %16, align 8
  %17 = getelementptr inbounds i8, ptr %9, i64 56
  store ptr %6, ptr %17, align 8
  %18 = getelementptr inbounds i8, ptr %9, i64 16
  store i32 0, ptr %18, align 8
  store ptr %0, ptr %10, align 8
  %19 = getelementptr inbounds i8, ptr %10, i64 24
  store ptr %1, ptr %19, align 8
  %20 = getelementptr inbounds i8, ptr %10, i64 16
  store ptr %2, ptr %20, align 8
  %21 = call i32 @zend_call_function(ptr noundef nonnull %9, ptr noundef nonnull %10), !range !4
  %22 = icmp ne i32 %21, -1
  %23 = load ptr, ptr getelementptr inbounds (%struct._zend_executor_globals, ptr @executor_globals, i64 0, i32 50), align 8
  %24 = icmp ne ptr %23, null
  %or.cond = select i1 %22, i1 true, i1 %24
  br i1 %or.cond, label %38, label %25

25:                                               ; preds = %7
  %26 = getelementptr inbounds i8, ptr %0, i64 16
  %27 = load ptr, ptr %26, align 8
  %.not16 = icmp eq ptr %27, null
  br i1 %.not16, label %32, label %28

28:                                               ; preds = %25
  %29 = getelementptr inbounds i8, ptr %27, i64 8
  %30 = load ptr, ptr %29, align 8
  %31 = getelementptr inbounds i8, ptr %30, i64 24
  br label %32

32:                                               ; preds = %25, %28
  %33 = phi ptr [ @.str.1, %28 ], [ @.str, %25 ]
  %34 = phi ptr [ %31, %28 ], [ @.str, %25 ]
  %35 = getelementptr inbounds i8, ptr %0, i64 8
  %36 = load ptr, ptr %35, align 8
  %37 = getelementptr inbounds i8, ptr %36, i64 24
  call void (i32, ptr, ...) @zend_error_noreturn(i32 noundef 16, ptr noundef nonnull @.str.8, ptr noundef nonnull %34, ptr noundef nonnull %33, ptr noundef nonnull %37) #27
  unreachable

38:                                               ; preds = %7
  br i1 %.not, label %39, label %40

39:                                               ; preds = %38
  call void @zval_ptr_dtor(ptr noundef nonnull %8) #24
  br label %40

40:                                               ; preds = %39, %38
  ret void
}